CCS PCH C Compiler, Version 5.015, 5967               16-Jun-25 01:01

               Filename:   I:\Tai lieu zalo\Do an 1\DA1_FINAL.lst

               ROM used:   4508 bytes (14%)
                           Largest free fragment is 28256
               RAM used:   80 (4%) at main() level
                           101 (5%) worst case
               Stack used: 9 locations (7 in main + 2 for interrupts)
               Stack size: 31

*
0000:  GOTO   0F7A
*
0008:  MOVWF  04
000A:  MOVFF  FD8,05
000E:  MOVFF  FE0,06
0012:  MOVLB  0
0014:  MOVFF  FE9,0C
0018:  MOVFF  FEA,07
001C:  MOVFF  FE1,08
0020:  MOVFF  FE2,09
0024:  MOVFF  FD9,0A
0028:  MOVFF  FDA,0B
002C:  MOVFF  FF3,12
0030:  MOVFF  FF4,13
0034:  MOVFF  FFA,14
0038:  MOVFF  00,0E
003C:  MOVFF  01,0F
0040:  MOVFF  02,10
0044:  MOVFF  03,11
0048:  BTFSS  FF2.3
004A:  GOTO   0054
004E:  BTFSC  FF2.0
0050:  GOTO   00FE
0054:  MOVFF  0E,00
0058:  MOVFF  0F,01
005C:  MOVFF  10,02
0060:  MOVFF  11,03
0064:  MOVFF  0C,FE9
0068:  MOVFF  07,FEA
006C:  BSF    07.7
006E:  MOVFF  08,FE1
0072:  MOVFF  09,FE2
0076:  MOVFF  0A,FD9
007A:  MOVFF  0B,FDA
007E:  MOVFF  12,FF3
0082:  MOVFF  13,FF4
0086:  MOVFF  14,FFA
008A:  MOVF   04,W
008C:  MOVFF  06,FE0
0090:  MOVFF  05,FD8
0094:  RETFIE 0
.................... #include <18f4550.h> 
.................... //////////// Standard Header file for the PIC18F4550 device //////////////// 
.................... /////////////////////////////////////////////////////////////////////////// 
.................... ////        (C) Copyright 1996, 2013 Custom Computer Services          //// 
.................... //// This source code may only be used by licensed users of the CCS C  //// 
.................... //// compiler.  This source code may only be distributed to other      //// 
.................... //// licensed users of the CCS C compiler.  No other use, reproduction //// 
.................... //// or distribution is permitted without written permission.          //// 
.................... //// Derivative programs created using this software in object code    //// 
.................... //// form are not restricted in any way.                               //// 
.................... /////////////////////////////////////////////////////////////////////////// 
.................... #device PIC18F4550 
0096:  MOVFF  FF2,0D
009A:  BCF    FF2.7
009C:  CLRF   FF7
009E:  ADDLW  B0
00A0:  MOVWF  FF6
00A2:  MOVLW  00
00A4:  ADDWFC FF7,F
00A6:  TBLRD*+
00A8:  MOVF   FF5,W
00AA:  BTFSC  0D.7
00AC:  BSF    FF2.7
00AE:  RETURN 0
00B0:  DATA 28,0C
00B2:  DATA 01,06
00B4:  MOVFF  FF2,0D
00B8:  BCF    FF2.7
00BA:  CLRF   FF7
00BC:  ADDLW  CE
00BE:  MOVWF  FF6
00C0:  MOVLW  00
00C2:  ADDWFC FF7,F
00C4:  TBLRD*+
00C6:  MOVF   FF5,W
00C8:  BTFSC  0D.7
00CA:  BSF    FF2.7
00CC:  RETURN 0
00CE:  DATA C0,F9
00D0:  DATA A4,B0
00D2:  DATA 99,92
00D4:  DATA 82,F8
00D6:  DATA 80,90
*
0188:  DATA 4D,6F
018A:  DATA 64,65
018C:  DATA 3A,20
018E:  DATA 33,00
0190:  DATA 54,48
0192:  DATA 4F,49
0194:  DATA 20,47
0196:  DATA 49,41
0198:  DATA 4E,20
019A:  DATA 42,41
019C:  DATA 4F,20
019E:  DATA 54,48
01A0:  DATA 55,43
01A2:  DATA 00,00
01A4:  DATA 54,69
01A6:  DATA 6D,65
01A8:  DATA 3A,20
01AA:  DATA 25,75
01AC:  DATA 20,3A
01AE:  DATA 20,25
01B0:  DATA 75,20
01B2:  DATA 3A,25
01B4:  DATA 75,20
01B6:  DATA 20,20
01B8:  DATA 20,00
01BA:  DATA 53,65
01BC:  DATA 74,3A
01BE:  DATA 20,25
01C0:  DATA 64,20
01C2:  DATA 3A,20
01C4:  DATA 25,64
01C6:  DATA 20,3A
01C8:  DATA 20,25
01CA:  DATA 64,00
01CC:  DATA 53,65
01CE:  DATA 74,3A
01D0:  DATA 20,25
01D2:  DATA 64,20
01D4:  DATA 3A,20
01D6:  DATA 25,64
01D8:  DATA 20,3A
01DA:  DATA 20,25
01DC:  DATA 64,00
01DE:  DATA 52,54
01E0:  DATA 43,20
01E2:  DATA 45,72
01E4:  DATA 72,21
01E6:  DATA 00,00
01E8:  DATA 4D,6F
01EA:  DATA 64,65
01EC:  DATA 3A,20
01EE:  DATA 25,64
01F0:  DATA 20,20
01F2:  DATA 20,00
01F4:  DATA 54,69
01F6:  DATA 6D,65
01F8:  DATA 3A,20
01FA:  DATA 25,75
01FC:  DATA 20,3A
01FE:  DATA 20,25
0200:  DATA 75,20
0202:  DATA 3A,25
0204:  DATA 75,20
0206:  DATA 20,20
0208:  DATA 20,00
020A:  DATA 20,20
020C:  DATA 20,20
020E:  DATA 4C,65
0210:  DATA 20,4B
0212:  DATA 79,20
0214:  DATA 54,75
0216:  DATA 61,6E
0218:  DATA 00,00
021A:  DATA 20,20
021C:  DATA 48,6F
021E:  DATA 61,6E
0220:  DATA 67,20
0222:  DATA 44,75
0224:  DATA 63,20
0226:  DATA 54,72
0228:  DATA 6F,6E
022A:  DATA 67,00
022C:  DATA 4D,6F
022E:  DATA 64,65
0230:  DATA 3A,20
0232:  DATA 25,64
0234:  DATA 20,20
0236:  DATA 20,00
0238:  DATA 4E,68
023A:  DATA 69,65
023C:  DATA 74,20
023E:  DATA 44,6F
0240:  DATA 3A,20
0242:  DATA 25,73
0244:  DATA 00,00
0246:  DATA 44,6F
0248:  DATA 20,41
024A:  DATA 6D,3A
024C:  DATA 20,25
024E:  DATA 73,00
0250:  DATA 20,20
0252:  DATA 20,20
0254:  DATA 20,20
0256:  DATA 20,20
0258:  DATA 20,20
025A:  DATA 20,20
025C:  DATA 20,20
025E:  DATA 20,20
0260:  DATA 20,20
0262:  DATA 20,20
0264:  DATA 20,20
0266:  DATA 20,20
0268:  DATA 20,20
026A:  DATA 20,20
026C:  DATA 20,20
026E:  DATA 20,20
0270:  DATA 20,20
0272:  DATA 20,20
0274:  DATA 20,20
0276:  DATA 20,20
0278:  DATA 20,00
*
067E:  CLRF   01
0680:  CLRF   02
0682:  CLRF   00
0684:  CLRF   03
0686:  MOVF   54,W
0688:  BNZ   068E
068A:  MOVF   53,W
068C:  BZ    06BE
068E:  MOVLW  10
0690:  MOVWF  55
0692:  BCF    FD8.0
0694:  RLCF   51,F
0696:  RLCF   52,F
0698:  RLCF   00,F
069A:  RLCF   03,F
069C:  MOVF   54,W
069E:  SUBWF  03,W
06A0:  BNZ   06A6
06A2:  MOVF   53,W
06A4:  SUBWF  00,W
06A6:  BNC   06B6
06A8:  MOVF   53,W
06AA:  SUBWF  00,F
06AC:  BTFSS  FD8.0
06AE:  DECF   03,F
06B0:  MOVF   54,W
06B2:  SUBWF  03,F
06B4:  BSF    FD8.0
06B6:  RLCF   01,F
06B8:  RLCF   02,F
06BA:  DECFSZ 55,F
06BC:  BRA    0692
06BE:  RETURN 0
*
0AB6:  TBLRD*+
0AB8:  MOVF   FF5,F
0ABA:  BZ    0AD4
0ABC:  MOVFF  FF6,4F
0AC0:  MOVFF  FF7,50
0AC4:  MOVFF  FF5,55
0AC8:  RCALL  0A74
0ACA:  MOVFF  4F,FF6
0ACE:  MOVFF  50,FF7
0AD2:  BRA    0AB6
0AD4:  RETURN 0
0AD6:  MOVF   56,W
0AD8:  CLRF   01
0ADA:  SUBWF  55,W
0ADC:  BC    0AE4
0ADE:  MOVFF  55,00
0AE2:  BRA    0AFC
0AE4:  CLRF   00
0AE6:  MOVLW  08
0AE8:  MOVWF  57
0AEA:  RLCF   55,F
0AEC:  RLCF   00,F
0AEE:  MOVF   56,W
0AF0:  SUBWF  00,W
0AF2:  BTFSC  FD8.0
0AF4:  MOVWF  00
0AF6:  RLCF   01,F
0AF8:  DECFSZ 57,F
0AFA:  BRA    0AEA
0AFC:  RETURN 0
*
0C36:  TBLRD*+
0C38:  MOVFF  FF6,50
0C3C:  MOVFF  FF7,51
0C40:  MOVFF  FF5,55
0C44:  RCALL  0A74
0C46:  MOVFF  50,FF6
0C4A:  MOVFF  51,FF7
0C4E:  DECFSZ 4F,F
0C50:  BRA    0C36
0C52:  RETURN 0
0C54:  MOVLW  20
0C56:  BTFSS  50.4
0C58:  MOVLW  30
0C5A:  MOVWF  51
0C5C:  MOVFF  4F,00
0C60:  BTFSS  4F.7
0C62:  BRA    0C74
0C64:  COMF   00,F
0C66:  INCF   00,F
0C68:  MOVFF  00,4F
0C6C:  MOVLW  2D
0C6E:  MOVWF  51
0C70:  BSF    50.7
0C72:  BSF    50.0
0C74:  MOVF   01,W
0C76:  MOVFF  4F,55
0C7A:  MOVLW  64
0C7C:  MOVWF  56
0C7E:  RCALL  0AD6
0C80:  MOVFF  00,4F
0C84:  MOVLW  30
0C86:  ADDWF  01,W
0C88:  MOVWF  52
0C8A:  MOVFF  4F,55
0C8E:  MOVLW  0A
0C90:  MOVWF  56
0C92:  RCALL  0AD6
0C94:  MOVLW  30
0C96:  ADDWF  00,W
0C98:  MOVWF  54
0C9A:  MOVLW  30
0C9C:  ADDWF  01,W
0C9E:  MOVWF  53
0CA0:  MOVFF  51,00
0CA4:  MOVLW  30
0CA6:  SUBWF  52,W
0CA8:  BZ    0CB2
0CAA:  BSF    50.1
0CAC:  BTFSC  50.7
0CAE:  BSF    50.2
0CB0:  BRA    0CD6
0CB2:  MOVFF  51,52
0CB6:  MOVLW  20
0CB8:  MOVWF  51
0CBA:  MOVLW  30
0CBC:  SUBWF  53,W
0CBE:  BZ    0CC8
0CC0:  BSF    50.0
0CC2:  BTFSC  50.7
0CC4:  BSF    50.1
0CC6:  BRA    0CD6
0CC8:  BTFSS  FD8.2
0CCA:  BSF    50.0
0CCC:  BNZ   0CD6
0CCE:  MOVFF  52,53
0CD2:  MOVLW  20
0CD4:  MOVWF  52
0CD6:  BTFSC  50.2
0CD8:  BRA    0CE4
0CDA:  BTFSC  50.1
0CDC:  BRA    0CEA
0CDE:  BTFSC  50.0
0CE0:  BRA    0CF0
0CE2:  BRA    0CF6
0CE4:  MOVFF  51,55
0CE8:  RCALL  0A74
0CEA:  MOVFF  52,55
0CEE:  RCALL  0A74
0CF0:  MOVFF  53,55
0CF4:  RCALL  0A74
0CF6:  MOVFF  54,55
0CFA:  RCALL  0A74
0CFC:  RETURN 0
0CFE:  MOVF   01,W
0D00:  MOVFF  4F,55
0D04:  MOVLW  64
0D06:  MOVWF  56
0D08:  RCALL  0AD6
0D0A:  MOVFF  00,4F
0D0E:  MOVF   01,W
0D10:  MOVLW  30
0D12:  BNZ   0D22
0D14:  BTFSS  50.1
0D16:  BRA    0D30
0D18:  BTFSC  50.3
0D1A:  BRA    0D30
0D1C:  BTFSC  50.4
0D1E:  MOVLW  20
0D20:  BRA    0D28
0D22:  BCF    50.3
0D24:  BCF    50.4
0D26:  BSF    50.0
0D28:  ADDWF  01,F
0D2A:  MOVFF  01,55
0D2E:  RCALL  0A74
0D30:  MOVFF  4F,55
0D34:  MOVLW  0A
0D36:  MOVWF  56
0D38:  RCALL  0AD6
0D3A:  MOVFF  00,4F
0D3E:  MOVF   01,W
0D40:  MOVLW  30
0D42:  BNZ   0D50
0D44:  BTFSC  50.3
0D46:  BRA    0D58
0D48:  BTFSS  50.0
0D4A:  BRA    0D58
0D4C:  BTFSC  50.4
0D4E:  MOVLW  20
0D50:  ADDWF  01,F
0D52:  MOVFF  01,55
0D56:  RCALL  0A74
0D58:  MOVLW  30
0D5A:  ADDWF  4F,F
0D5C:  MOVFF  4F,55
0D60:  RCALL  0A74
0D62:  RETURN 0
0D64:  MOVF   FEF,F
0D66:  BZ    0D86
0D68:  MOVFF  FEA,50
0D6C:  MOVFF  FE9,4F
0D70:  MOVFF  FEF,55
0D74:  RCALL  0A74
0D76:  MOVFF  50,FEA
0D7A:  MOVFF  4F,FE9
0D7E:  INCF   FE9,F
0D80:  BTFSC  FD8.2
0D82:  INCF   FEA,F
0D84:  BRA    0D64
0D86:  RETURN 0
....................  
.................... #list 
....................  
.................... #fuses HSPLL, NOWDT, NOPROTECT, NOLVP, PLL5 
.................... #use delay(clock=20M) 
*
00D8:  CLRF   FEA
00DA:  MOVLW  64
00DC:  MOVWF  FE9
00DE:  MOVF   FEF,W
00E0:  BZ    00FC
00E2:  MOVLW  06
00E4:  MOVWF  01
00E6:  CLRF   00
00E8:  DECFSZ 00,F
00EA:  BRA    00E8
00EC:  DECFSZ 01,F
00EE:  BRA    00E6
00F0:  MOVLW  7B
00F2:  MOVWF  00
00F4:  DECFSZ 00,F
00F6:  BRA    00F4
00F8:  DECFSZ FEF,F
00FA:  BRA    00E2
00FC:  RETURN 0
.................... #use i2c(Master,Fast=100000, sda=PIN_B0, scl=PIN_B1, STREAM=DS1307_STREAM) 
*
027A:  MOVLW  08
027C:  MOVWF  01
027E:  MOVLW  05
0280:  MOVWF  00
0282:  DECFSZ 00,F
0284:  BRA    0282
0286:  BCF    F8A.1
0288:  BCF    F93.1
028A:  MOVLW  06
028C:  MOVWF  00
028E:  DECFSZ 00,F
0290:  BRA    028E
0292:  RLCF   x63,F
0294:  BCF    F8A.0
0296:  BTFSC  FD8.0
0298:  BSF    F93.0
029A:  BTFSS  FD8.0
029C:  BCF    F93.0
029E:  BSF    F93.1
02A0:  BTFSS  F81.1
02A2:  BRA    02A0
02A4:  DECFSZ 01,F
02A6:  BRA    027E
02A8:  MOVLW  05
02AA:  MOVWF  00
02AC:  DECFSZ 00,F
02AE:  BRA    02AC
02B0:  BCF    F8A.1
02B2:  BCF    F93.1
02B4:  NOP   
02B6:  BSF    F93.0
02B8:  MOVLW  06
02BA:  MOVWF  00
02BC:  DECFSZ 00,F
02BE:  BRA    02BC
02C0:  MOVLW  06
02C2:  MOVWF  00
02C4:  DECFSZ 00,F
02C6:  BRA    02C4
02C8:  BSF    F93.1
02CA:  BTFSS  F81.1
02CC:  BRA    02CA
02CE:  CLRF   01
02D0:  MOVLW  06
02D2:  MOVWF  00
02D4:  DECFSZ 00,F
02D6:  BRA    02D4
02D8:  BTFSC  F81.0
02DA:  BSF    01.0
02DC:  BCF    F8A.1
02DE:  BCF    F93.1
02E0:  BCF    F8A.0
02E2:  BCF    F93.0
02E4:  RETURN 0
*
088A:  MOVLW  08
088C:  MOVWF  50
088E:  MOVFF  00,51
0892:  BSF    F93.0
0894:  MOVLW  06
0896:  MOVWF  00
0898:  DECFSZ 00,F
089A:  BRA    0898
089C:  BSF    F93.1
089E:  BTFSS  F81.1
08A0:  BRA    089E
08A2:  BTFSC  F81.0
08A4:  BSF    FD8.0
08A6:  BTFSS  F81.0
08A8:  BCF    FD8.0
08AA:  RLCF   01,F
08AC:  MOVLW  05
08AE:  MOVWF  00
08B0:  DECFSZ 00,F
08B2:  BRA    08B0
08B4:  BCF    F93.1
08B6:  BCF    F8A.1
08B8:  DECFSZ 50,F
08BA:  BRA    0892
08BC:  BSF    F93.0
08BE:  MOVLW  06
08C0:  MOVWF  00
08C2:  DECFSZ 00,F
08C4:  BRA    08C2
08C6:  BCF    F8A.0
08C8:  MOVF   51,W
08CA:  BTFSS  FD8.2
08CC:  BCF    F93.0
08CE:  NOP   
08D0:  BSF    F93.1
08D2:  BTFSS  F81.1
08D4:  BRA    08D2
08D6:  MOVLW  05
08D8:  MOVWF  00
08DA:  DECFSZ 00,F
08DC:  BRA    08DA
08DE:  BCF    F8A.1
08E0:  BCF    F93.1
08E2:  MOVLW  06
08E4:  MOVWF  00
08E6:  DECFSZ 00,F
08E8:  BRA    08E6
08EA:  BCF    F8A.0
08EC:  BCF    F93.0
08EE:  RETURN 0
.................... #include "i2c_lcd.c" 
....................  
.................... byte LCD_ADDR ;//             0x4E        //I2C slave address for LCD module  
.................... byte lcd_total_rows ;//       2           //Number of rows: 1,2,3 or 4  
.................... byte lcd_total_columns ;//    16          //Number of columns: 1...20    
....................  
.................... #define RS                    0b00000001  //P0 - PCF8574T Pin connected to RS  
.................... #define RW                    0b00000010  //P1 - PCF8574T Pin connected to RW  
.................... #define ENABLE                0b00000100  //P2 - PCF8574T Pin connected to EN  
.................... #define LCD_BACKLIGHT         0b00001000  //P3 - PCF8574T Pin connected to BACKLIGHT LED  
....................  
.................... #define addr_row_one          0x00        //LCD RAM address for row 1  
.................... #define addr_row_two          0x40        //LCD RAM address for row 2  
.................... #define addr_row_three        0x14        //LCD RAM address for row 3  
.................... #define addr_row_four         0x54        //LCD RAM address for row 4  
....................  
.................... #define ON                    1  
.................... #define OFF                   0  
.................... #define NOT                   ~  
.................... #define data_shifted          data<<4  
.................... int8 new_row_request=1, BACKLIGHT_LED=LCD_BACKLIGHT;  
....................  
.................... void lcd_backlight_led(byte bl)  
.................... {   
....................       If (bl) BACKLIGHT_LED=LCD_BACKLIGHT; else BACKLIGHT_LED=OFF;  
.................... }  
....................  
.................... void i2c_send_nibble(byte data, byte type)  
.................... {     
....................    switch (type)  
*
02E6:  MOVF   x61,W
02E8:  XORLW  00
02EA:  BZ    02F2
02EC:  XORLW  01
02EE:  BZ    033C
02F0:  BRA    0388
....................    {       
....................       case 0 :       
....................       i2c_write(data_shifted | BACKLIGHT_LED);  
02F2:  SWAPF  x60,W
02F4:  MOVWF  00
02F6:  MOVLW  F0
02F8:  ANDWF  00,F
02FA:  MOVF   00,W
02FC:  IORWF  1B,W
02FE:  MOVWF  x62
0300:  MOVWF  x63
0302:  RCALL  027A
....................       delay_cycles(1);  
0304:  NOP   
....................       i2c_write(data_shifted | ENABLE | BACKLIGHT_LED );  
0306:  SWAPF  x60,W
0308:  MOVWF  00
030A:  MOVLW  F0
030C:  ANDWF  00,F
030E:  MOVF   00,W
0310:  IORLW  04
0312:  IORWF  1B,W
0314:  MOVWF  x62
0316:  MOVWF  x63
0318:  RCALL  027A
....................       delay_us(2);  
031A:  MOVLW  02
031C:  MOVWF  00
031E:  DECFSZ 00,F
0320:  BRA    031E
0322:  BRA    0324
0324:  NOP   
....................       i2c_write(data_shifted & NOT ENABLE | BACKLIGHT_LED);  
0326:  SWAPF  x60,W
0328:  MOVWF  00
032A:  MOVLW  F0
032C:  ANDWF  00,F
032E:  MOVF   00,W
0330:  ANDLW  FB
0332:  IORWF  1B,W
0334:  MOVWF  x62
0336:  MOVWF  x63
0338:  RCALL  027A
....................       break;  
033A:  BRA    0388
....................        
....................       case 1 :  
....................       i2c_write(data_shifted | RS | BACKLIGHT_LED);  
033C:  SWAPF  x60,W
033E:  MOVWF  00
0340:  MOVLW  F0
0342:  ANDWF  00,F
0344:  MOVF   00,W
0346:  IORLW  01
0348:  IORWF  1B,W
034A:  MOVWF  x62
034C:  MOVWF  x63
034E:  RCALL  027A
....................       delay_cycles(1);  
0350:  NOP   
....................       i2c_write(data_shifted | RS | ENABLE | BACKLIGHT_LED );  
0352:  SWAPF  x60,W
0354:  MOVWF  00
0356:  MOVLW  F0
0358:  ANDWF  00,F
035A:  MOVF   00,W
035C:  IORLW  01
035E:  IORLW  04
0360:  IORWF  1B,W
0362:  MOVWF  x62
0364:  MOVWF  x63
0366:  RCALL  027A
....................       delay_us(2);  
0368:  MOVLW  02
036A:  MOVWF  00
036C:  DECFSZ 00,F
036E:  BRA    036C
0370:  BRA    0372
0372:  NOP   
....................       i2c_write(data_shifted | RS | BACKLIGHT_LED);  
0374:  SWAPF  x60,W
0376:  MOVWF  00
0378:  MOVLW  F0
037A:  ANDWF  00,F
037C:  MOVF   00,W
037E:  IORLW  01
0380:  IORWF  1B,W
0382:  MOVWF  x62
0384:  MOVWF  x63
0386:  RCALL  027A
....................       break;  
....................    }  
0388:  RETURN 0
.................... }  
....................      
.................... void lcd_send_byte(byte data, byte type)  
....................    {  
....................         i2c_start();  
038A:  BSF    F93.0
038C:  MOVLW  05
038E:  MOVWF  00
0390:  DECFSZ 00,F
0392:  BRA    0390
0394:  BSF    F93.1
0396:  MOVLW  06
0398:  MOVWF  00
039A:  DECFSZ 00,F
039C:  BRA    039A
039E:  BCF    F8A.0
03A0:  BCF    F93.0
03A2:  MOVLW  05
03A4:  MOVWF  00
03A6:  DECFSZ 00,F
03A8:  BRA    03A6
03AA:  BCF    F8A.1
03AC:  BCF    F93.1
....................         i2c_write(LCD_ADDR);  
03AE:  MOVFF  17,63
03B2:  RCALL  027A
....................         i2c_send_nibble(data >> 4 , type);  
03B4:  SWAPF  5D,W
03B6:  MOVWF  5F
03B8:  MOVLW  0F
03BA:  ANDWF  5F,F
03BC:  MOVFF  5F,60
03C0:  MOVFF  5E,61
03C4:  RCALL  02E6
....................         i2c_send_nibble(data & 0xf , type);  
03C6:  MOVF   5D,W
03C8:  ANDLW  0F
03CA:  MOVWF  5F
03CC:  MOVWF  x60
03CE:  MOVFF  5E,61
03D2:  RCALL  02E6
....................         i2c_stop();         
03D4:  BCF    F93.0
03D6:  NOP   
03D8:  BSF    F93.1
03DA:  BTFSS  F81.1
03DC:  BRA    03DA
03DE:  MOVLW  05
03E0:  MOVWF  00
03E2:  DECFSZ 00,F
03E4:  BRA    03E2
03E6:  BRA    03E8
03E8:  NOP   
03EA:  BSF    F93.0
03EC:  MOVLW  05
03EE:  MOVWF  00
03F0:  DECFSZ 00,F
03F2:  BRA    03F0
03F4:  RETURN 0
....................    }  
....................  
.................... void lcd_clear()  
.................... {   
....................         lcd_send_byte(0x01,0);  
03F6:  MOVLW  01
03F8:  MOVWF  5D
03FA:  CLRF   5E
03FC:  RCALL  038A
03FE:  CLRF   16
0400:  BTFSC  FF2.7
0402:  BSF    16.7
0404:  BCF    FF2.7
....................         delay_ms(2);  
0406:  MOVLW  02
0408:  MOVWF  x64
040A:  RCALL  00D8
040C:  BTFSC  16.7
040E:  BSF    FF2.7
....................         new_row_request=1;  
0410:  MOVLW  01
0412:  MOVWF  1A
0414:  RETURN 0
.................... }  
....................  
.................... void lcd_init(byte ADDR, byte col, byte row)  
.................... {  
....................    byte i; 
....................    byte CONST lcd_type=2;  // 0=5x7, 1=5x10, 2=2 lines  
....................    byte CONST LCD_INIT_STRING[4] = {0x20 | (lcd_type << 2), 0xc, 1, 6}; // These bytes need to be sent to the LCD to start it up. 
....................     
....................    LCD_ADDR =ADDR;//             0x4E        //I2C slave address for LCD module  
0416:  MOVFF  4F,17
....................    lcd_total_rows =row;//       2           //Number of rows: 1,2,3 or 4  
041A:  MOVFF  51,18
....................    lcd_total_columns= col ; 
041E:  MOVFF  50,19
....................    disable_interrupts(GLOBAL);  
0422:  BCF    FF2.6
0424:  BCF    FF2.7
0426:  BTFSC  FF2.7
0428:  BRA    0424
042A:  CLRF   16
042C:  BTFSC  FF2.7
042E:  BSF    16.7
0430:  BCF    FF2.7
....................    delay_ms(50); //LCD power up delay  
0432:  MOVLW  32
0434:  MOVWF  x64
0436:  RCALL  00D8
0438:  BTFSC  16.7
043A:  BSF    FF2.7
....................      
....................    i2c_start();  
043C:  BSF    F93.0
043E:  MOVLW  05
0440:  MOVWF  00
0442:  DECFSZ 00,F
0444:  BRA    0442
0446:  BSF    F93.1
0448:  MOVLW  06
044A:  MOVWF  00
044C:  DECFSZ 00,F
044E:  BRA    044C
0450:  BCF    F8A.0
0452:  BCF    F93.0
0454:  MOVLW  05
0456:  MOVWF  00
0458:  DECFSZ 00,F
045A:  BRA    0458
045C:  BCF    F8A.1
045E:  BCF    F93.1
....................    i2c_write(LCD_ADDR);  
0460:  MOVFF  17,63
0464:  RCALL  027A
....................       i2c_send_nibble(0x00,0);  
0466:  CLRF   x60
0468:  CLRF   x61
046A:  RCALL  02E6
046C:  CLRF   16
046E:  BTFSC  FF2.7
0470:  BSF    16.7
0472:  BCF    FF2.7
....................       delay_ms(15);  
0474:  MOVLW  0F
0476:  MOVWF  x64
0478:  RCALL  00D8
047A:  BTFSC  16.7
047C:  BSF    FF2.7
....................      
....................    for (i=1;i<=3;++i)     
047E:  MOVLW  01
0480:  MOVWF  52
0482:  MOVF   52,W
0484:  SUBLW  03
0486:  BNC   04A6
....................    {  
....................       i2c_send_nibble(0x03,0);  
0488:  MOVLW  03
048A:  MOVWF  x60
048C:  CLRF   x61
048E:  RCALL  02E6
0490:  CLRF   16
0492:  BTFSC  FF2.7
0494:  BSF    16.7
0496:  BCF    FF2.7
....................       delay_ms(5);  
0498:  MOVLW  05
049A:  MOVWF  x64
049C:  RCALL  00D8
049E:  BTFSC  16.7
04A0:  BSF    FF2.7
04A2:  INCF   52,F
04A4:  BRA    0482
....................    }     
....................       i2c_send_nibble(0x02,0);  
04A6:  MOVLW  02
04A8:  MOVWF  x60
04AA:  CLRF   x61
04AC:  RCALL  02E6
04AE:  CLRF   16
04B0:  BTFSC  FF2.7
04B2:  BSF    16.7
04B4:  BCF    FF2.7
....................       delay_ms(5);  
04B6:  MOVLW  05
04B8:  MOVWF  x64
04BA:  RCALL  00D8
04BC:  BTFSC  16.7
04BE:  BSF    FF2.7
....................    i2c_stop();  
04C0:  BCF    F93.0
04C2:  NOP   
04C4:  BSF    F93.1
04C6:  BTFSS  F81.1
04C8:  BRA    04C6
04CA:  MOVLW  05
04CC:  MOVWF  00
04CE:  DECFSZ 00,F
04D0:  BRA    04CE
04D2:  BRA    04D4
04D4:  NOP   
04D6:  BSF    F93.0
04D8:  MOVLW  05
04DA:  MOVWF  00
04DC:  DECFSZ 00,F
04DE:  BRA    04DC
....................      
....................    for (i=0;i<=3;++i) {  
04E0:  CLRF   52
04E2:  MOVF   52,W
04E4:  SUBLW  03
04E6:  BNC   0516
....................    lcd_send_byte(LCD_INIT_STRING[i],0);  
04E8:  CLRF   03
04EA:  MOVF   52,W
04EC:  MOVFF  FF2,53
04F0:  BCF    FF2.7
04F2:  RCALL  0096
04F4:  BTFSC  53.7
04F6:  BSF    FF2.7
04F8:  MOVWF  53
04FA:  MOVWF  5D
04FC:  CLRF   5E
04FE:  RCALL  038A
0500:  CLRF   16
0502:  BTFSC  FF2.7
0504:  BSF    16.7
0506:  BCF    FF2.7
....................    delay_ms(5);  
0508:  MOVLW  05
050A:  MOVWF  x64
050C:  RCALL  00D8
050E:  BTFSC  16.7
0510:  BSF    FF2.7
0512:  INCF   52,F
0514:  BRA    04E2
....................    }  
....................    lcd_clear();  //Clear Display  
0516:  RCALL  03F6
....................    enable_interrupts(GLOBAL);  
0518:  MOVLW  C0
051A:  IORWF  FF2,F
051C:  GOTO   0FF2 (RETURN)
.................... }  
....................  
.................... void lcd_gotoxy( byte x, byte y)  
.................... {  
.................... byte row,column,row_addr,lcd_address;  
.................... static char data;  
....................  
....................    if (y>lcd_total_rows) row=lcd_total_rows; else row=y;  
*
0A12:  MOVF   57,W
0A14:  SUBWF  18,W
0A16:  BC    0A1E
0A18:  MOVFF  18,58
0A1C:  BRA    0A22
0A1E:  MOVFF  57,58
....................    
....................    switch(row)  
0A22:  MOVF   58,W
0A24:  XORLW  01
0A26:  BZ    0A36
0A28:  XORLW  03
0A2A:  BZ    0A3A
0A2C:  XORLW  01
0A2E:  BZ    0A40
0A30:  XORLW  07
0A32:  BZ    0A46
0A34:  BRA    0A4C
....................    {  
....................       case 1:  row_addr=addr_row_one;     break;  
0A36:  CLRF   5A
0A38:  BRA    0A4E
....................       case 2:  row_addr=addr_row_two;     break;  
0A3A:  MOVLW  40
0A3C:  MOVWF  5A
0A3E:  BRA    0A4E
....................       case 3:  row_addr=addr_row_three;   break;  
0A40:  MOVLW  14
0A42:  MOVWF  5A
0A44:  BRA    0A4E
....................       case 4:  row_addr=addr_row_four;    break;  
0A46:  MOVLW  54
0A48:  MOVWF  5A
0A4A:  BRA    0A4E
....................       default: row_addr=addr_row_one;     break;   
0A4C:  CLRF   5A
....................    }   
....................      
....................    if (x>lcd_total_columns) column=lcd_total_columns; else column=x;   
0A4E:  MOVF   56,W
0A50:  SUBWF  19,W
0A52:  BC    0A5A
0A54:  MOVFF  19,59
0A58:  BRA    0A5E
0A5A:  MOVFF  56,59
....................    lcd_address=(row_addr+(column-1));  
0A5E:  MOVLW  01
0A60:  SUBWF  59,W
0A62:  ADDWF  5A,W
0A64:  MOVWF  5B
....................    lcd_send_byte(0x80|lcd_address,0);  
0A66:  MOVF   5B,W
0A68:  IORLW  80
0A6A:  MOVWF  5C
0A6C:  MOVWF  5D
0A6E:  CLRF   5E
0A70:  RCALL  038A
0A72:  RETURN 0
.................... }  
....................  
.................... //Display the character on LCD screen.  
.................... void LCD_PUTC(char in_data)  
.................... {     
....................   switch(in_data)  
0A74:  MOVF   55,W
0A76:  XORLW  0C
0A78:  BZ    0A84
0A7A:  XORLW  06
0A7C:  BZ    0A88
0A7E:  XORLW  02
0A80:  BZ    0AA0
0A82:  BRA    0AAA
....................    {   
....................      case '\f': lcd_clear();                       break;                 
0A84:  RCALL  03F6
0A86:  BRA    0AB4
....................        
....................      case '\n':  
....................      new_row_request++;  
0A88:  INCF   1A,F
....................      if (new_row_request>lcd_total_rows) new_row_request=1;  
0A8A:  MOVF   1A,W
0A8C:  SUBWF  18,W
0A8E:  BC    0A94
0A90:  MOVLW  01
0A92:  MOVWF  1A
....................      lcd_gotoxy(1, new_row_request);  
0A94:  MOVLW  01
0A96:  MOVWF  56
0A98:  MOVFF  1A,57
0A9C:  RCALL  0A12
....................      break;  
0A9E:  BRA    0AB4
....................                    
....................      case '\b': lcd_send_byte(0x10,0);             break;  
0AA0:  MOVLW  10
0AA2:  MOVWF  5D
0AA4:  CLRF   5E
0AA6:  RCALL  038A
0AA8:  BRA    0AB4
....................          
....................      default: lcd_send_byte(in_data,1);            break;       
0AAA:  MOVFF  55,5D
0AAE:  MOVLW  01
0AB0:  MOVWF  5E
0AB2:  RCALL  038A
....................        
....................    }  
0AB4:  RETURN 0
.................... }  
....................  
.................... #include <ds1307.c> 
.................... #if defined DS1307_I2C_NO_STREAM 
....................   #define RTC_I2C_START()   i2c_start() 
....................   #define RTC_I2C_STOP()    i2c_stop() 
....................   #define RTC_I2C_WRITE(x)  i2c_write(x) 
....................   #define RTC_I2C_READ(x)   i2c_read(x) 
.................... #elif defined DS1307_I2C_STREAM 
....................   #define RTC_I2C_START()   i2c_start(DS1307_I2C_STREAM) 
....................   #define RTC_I2C_STOP()    i2c_stop(DS1307_I2C_STREAM) 
....................   #define RTC_I2C_WRITE(x)  i2c_write(DS1307_I2C_STREAM, x) 
....................   #define RTC_I2C_READ(x)   i2c_read(DS1307_I2C_STREAM, x) 
.................... #else 
....................   #define RTC_I2C_START()   i2c_start(DS1307_STREAM) 
....................   #define RTC_I2C_STOP()    i2c_stop(DS1307_STREAM) 
....................   #define RTC_I2C_WRITE(x)  i2c_write(DS1307_STREAM, x) 
....................   #define RTC_I2C_READ(x)   i2c_read(DS1307_STREAM, x) 
.................... #endif 
....................  
.................... #include <stdint.h> 
.................... /////////////////////////////////////////////////////////////////////////// 
.................... ////                                                                   //// 
.................... ////                           stdint.h                                //// 
.................... ////                                                                   //// 
.................... //// Standard integer definitions.                                     //// 
.................... ////                                                                   //// 
.................... /////////////////////////////////////////////////////////////////////////// 
.................... ////        (C) Copyright 1996,2008 Custom Computer Services           //// 
.................... //// This source code may only be used by licensed users of the CCS C  //// 
.................... //// compiler.  This source code may only be distributed to other      //// 
.................... //// licensed users of the CCS C compiler.  No other use, reproduction //// 
.................... //// or distribution is permitted without written permission.          //// 
.................... //// Derivative programs created using this software in object code    //// 
.................... //// form are not restricted in any way.                               //// 
.................... /////////////////////////////////////////////////////////////////////////// 
....................  
.................... #ifndef _STDINT 
....................  
.................... #define _STDINT 
....................  
.................... //////////// exact width 
....................  
.................... typedef signed int8 int8_t; 
.................... typedef unsigned int8 uint8_t; 
.................... typedef signed int16 int16_t; 
.................... typedef unsigned int16 uint16_t; 
.................... typedef signed int32 int32_t; 
.................... typedef unsigned int32 uint32_t; 
....................  
.................... #if defined(__PCD__) 
.................... //typedef signed int24 int24_t; 
.................... //typedef unsigned int24 uint24_t; 
.................... typedef signed int64 int64_t; 
.................... typedef unsigned int64 uint64_t; 
.................... #endif 
....................  
.................... #define INT8_MAX  (128) 
.................... #define INT8_MIN  (-127) 
.................... #define UINT8_MAX (255) 
....................  
.................... #define INT16_MAX  (32767) 
.................... #define INT16_MIN  (-32768) 
.................... #define UINT16_MAX (65535) 
....................  
.................... #define INT32_MAX  (2147483647) 
.................... #define INT32_MIN  (-2147483648) 
.................... #define UINT32_MAX (4294967295) 
....................  
.................... #if defined(__PCD__) 
.................... //#define INT24_MAX  (8388607) 
.................... //#define INT24_MIN  (-8388608) 
.................... //#define UINT24_MAX (16777215) 
....................  
.................... #define INT64_MAX  (9223372036854775807) 
.................... #define INT64_MIN  (-9223372036854775808) 
.................... #define UINT64_MAX (18446744073709551615) 
.................... #endif 
....................  
.................... ///////// minimum width 
....................  
.................... typedef signed int8 int_least8_t; 
.................... typedef unsigned int8 uint_least8_t; 
.................... typedef signed int16 int_least16_t; 
.................... typedef unsigned int16 uint_least16_t; 
.................... typedef signed int32 int_least32_t; 
.................... typedef unsigned int32 uint_least32_t; 
....................  
.................... #if defined(__PCD__) 
.................... //typedef signed int24 int_least24_t; 
.................... //typedef unsigned int24 uint_least24_t; 
.................... typedef signed int64 int_least64_t; 
.................... typedef unsigned int64 uint_least64_t; 
.................... #endif 
....................  
.................... #define INT_LEAST8_MAX  (128) 
.................... #define INT_LEAST8_MIN  (-127) 
.................... #define UINT_LEAST8_MAX (255) 
....................  
.................... #define INT_LEAST16_MAX  (32767) 
.................... #define INT_LEAST16_MIN  (-32768) 
.................... #define UINT_LEAST16_MAX (65535) 
....................  
.................... #define INT_LEAST32_MAX  (2147483647) 
.................... #define INT_LEAST32_MIN  (-2147483648) 
.................... #define UINT_LEAST32_MAX (4294967295) 
....................  
.................... #if defined(__PCD__) 
.................... //#define INT_LEAST24_MAX  (8388607) 
.................... //#define INT_LEAST24_MIN  (-8388608) 
.................... //#define UINT_LEAST24_MAX (16777215) 
....................  
.................... #define INT_LEAST64_MAX  (9223372036854775807) 
.................... #define INT_LEAST64_MIN  (-9223372036854775808) 
.................... #define UINT_LEAST64_MAX (18446744073709551615) 
.................... #endif 
....................  
.................... ///////// fastest width 
....................  
.................... #if defined(__PCD__) 
.................... typedef signed int16 int_fast8_t; 
.................... typedef unsigned int16 uint_fast8_t; 
.................... #define INT_FAST8_MAX  (32767) 
.................... #define INT_FAST8_MIN  (-32768) 
.................... #define UINT_FAST8_MAX (65535) 
.................... typedef signed int16 int_fast16_t; 
.................... typedef unsigned int16 uint_fast16_t; 
.................... //typedef signed int24 int_fast24_t; 
.................... //typedef unsigned int24 uint_fast24_t; 
.................... typedef signed int64 int_fast64_t; 
.................... typedef unsigned int64 uint_fast64_t; 
.................... #else 
.................... typedef signed int8 int_fast8_t; 
.................... typedef unsigned int8 uint_fast8_t; 
.................... #define INT_FAST8_MAX  (128) 
.................... #define INT_FAST8_MIN  (-127) 
.................... #define UINT_FAST8_MAX (255) 
.................... typedef signed int16 int_fast16_t; 
.................... typedef unsigned int16 uint_fast16_t; 
.................... #endif 
....................  
.................... typedef signed int32 int_fast32_t; 
.................... typedef unsigned int32 uint_fast32_t; 
....................  
.................... #define INT_FAST16_MAX  (32767) 
.................... #define INT_FAST16_MIN  (-32768) 
.................... #define UINT_FAST16_MAX (65535) 
....................  
.................... #define INT_FAST32_MAX  (2147483647) 
.................... #define INT_FAST32_MIN  (-2147483648) 
.................... #define UINT_FAST32_MAX (4294967295) 
....................  
.................... #if defined(__PCD__) 
.................... //#define INT_FAST24_MAX  (8388607) 
.................... //#define INT_FAST24_MIN  (-8388608) 
.................... //#define UINT_FAST24_MAX (16777215) 
....................  
.................... #define INT_FAST64_MAX  (9223372036854775807) 
.................... #define INT_FAST64_MIN  (-9223372036854775808) 
.................... #define UINT_FAST64_MAX (18446744073709551615) 
.................... #endif 
....................  
.................... //////////// big enough to hold pointers (OPTIONAL) 
....................  
.................... /// TODO 
....................  
.................... /// intptr_t uintptr_t 
....................  
.................... /// INTPTRN_MIN INTPTRN_MAX UINTPTRN_MAX 
....................  
....................  
.................... /////////// greatest width (OPTIONAL) 
....................  
.................... /// TODO 
....................  
.................... /// intmax_t uintmax_t 
....................  
.................... /// INTMAXN_MIN INTMAXN_MAX UINTMAXN_MAX 
....................  
.................... /// INTMAX_C(value) UINTMAX_C(value) 
....................  
....................  
.................... #endif 
....................  
....................  
.................... #define DS1307_ADDRESS      0xD0 
.................... #define DS1307_REG_SECONDS  0x00 
.................... #define DS1307_REG_CONTROL  0x07 
....................  
.................... enum SQWE 
.................... { 
....................   OUT_OFF = 0x00, 
....................   OUT_ON  = 0x80, 
....................   OUT_1Hz = 0x10, 
....................   OUT_4096Hz  = 0x11, 
....................   OUT_8192Hz  = 0x12, 
....................   OUT_32768Hz = 0x13 
.................... }; 
....................  
.................... typedef enum 
.................... { 
....................   SUNDAY = 1, 
....................   MONDAY, 
....................   TUESDAY, 
....................   WEDNESDAY, 
....................   THURSDAY, 
....................   FRIDAY, 
....................   SATURDAY 
.................... } RTC_DOW; 
....................  
.................... typedef enum 
.................... { 
....................   JANUARY = 1, 
....................   FEBRUARY, 
....................   MARCH, 
....................   APRIL, 
....................   MAY, 
....................   JUNE, 
....................   JULY, 
....................   AUGUST, 
....................   SEPTEMBER, 
....................   OCTOBER, 
....................   NOVEMBER, 
....................   DECEMBER 
.................... } RTC_Month; 
....................  
.................... typedef struct rtc_tm 
.................... { 
....................   uint8_t seconds; 
....................   uint8_t minutes; 
....................   uint8_t hours; 
....................   RTC_DOW dow; 
....................   uint8_t day; 
....................   RTC_Month month; 
....................   uint8_t year; 
.................... } RTC_Time; 
....................  
.................... ///////////////////////// All Functions ///////////////////////// 
....................                                                                // 
.................... uint8_t bcd_to_decimal(uint8_t number);                        // 
.................... uint8_t decimal_to_bcd(uint8_t number);                        // 
.................... void RTC_Set(RTC_Time *time_t);                                // 
.................... RTC_Time *RTC_Get();                                           // 
.................... void OSC_Enable();                                             // 
.................... void OSC_Disable();                                            // 
.................... uint8_t RTC_Read_Reg(uint8_t reg_address);                     // 
.................... void RTC_Write_Reg(uint8_t reg_address, uint8_t reg_value);    // 
.................... void SQWE_Set(SQWE pin_out);                                   // 
....................                                                                // 
.................... ///////////////////////////////////////////////////////////////// 
....................  
.................... // converts BCD to decimal 
.................... uint8_t bcd_to_decimal(uint8_t number) 
.................... { 
....................   return ( (number >> 4) * 10 + (number & 0x0F) ); 
*
08F0:  SWAPF  4F,W
08F2:  MOVWF  00
08F4:  MOVLW  0F
08F6:  ANDWF  00,F
08F8:  MOVF   00,W
08FA:  MULLW  0A
08FC:  MOVFF  FF3,50
0900:  MOVF   4F,W
0902:  ANDLW  0F
0904:  ADDWF  50,W
0906:  MOVWF  01
0908:  RETURN 0
.................... } 
....................  
.................... // converts decimal to BCD 
.................... uint8_t decimal_to_bcd(uint8_t number) 
.................... { 
....................   return ( ((number / 10) << 4) + (number % 10) ); 
.................... } 
....................  
.................... // sets time and date 
.................... void RTC_Set(RTC_Time *time_t) 
.................... { 
....................   uint8_t sec_reg = RTC_Read_Reg(DS1307_REG_SECONDS); 
....................  
....................   // convert decimal to BCD 
....................   time_t->day     = decimal_to_bcd(time_t->day); 
....................   time_t->month   = decimal_to_bcd(time_t->month); 
....................   time_t->year    = decimal_to_bcd(time_t->year); 
....................   time_t->hours   = decimal_to_bcd(time_t->hours); 
....................   time_t->minutes = decimal_to_bcd(time_t->minutes); 
....................   time_t->seconds = decimal_to_bcd(time_t->seconds); 
....................   // end conversion 
....................    
....................   // test if oscillator is disabled (CH bit = 1) 
....................   if(sec_reg & 0x80) 
....................     time_t->seconds |= 0x80; 
....................  
....................   // write data to the RTC chip 
....................   RTC_I2C_START(); 
....................   RTC_I2C_WRITE(DS1307_ADDRESS); 
....................   RTC_I2C_WRITE(DS1307_REG_SECONDS); 
....................   RTC_I2C_WRITE(time_t->seconds); 
....................   RTC_I2C_WRITE(time_t->minutes); 
....................   RTC_I2C_WRITE(time_t->hours); 
....................   RTC_I2C_WRITE(time_t->dow); 
....................   RTC_I2C_WRITE(time_t->day); 
....................   RTC_I2C_WRITE(time_t->month); 
....................   RTC_I2C_WRITE(time_t->year); 
....................   RTC_I2C_STOP(); 
.................... } 
....................  
.................... RTC_Time c_time; 
....................  
.................... // reads time and date 
.................... RTC_Time *RTC_Get() 
.................... { 
....................   RTC_I2C_START(); 
090A:  BSF    F93.0
090C:  MOVLW  05
090E:  MOVWF  00
0910:  DECFSZ 00,F
0912:  BRA    0910
0914:  BSF    F93.1
0916:  MOVLW  06
0918:  MOVWF  00
091A:  DECFSZ 00,F
091C:  BRA    091A
091E:  BCF    F8A.0
0920:  BCF    F93.0
0922:  MOVLW  05
0924:  MOVWF  00
0926:  DECFSZ 00,F
0928:  BRA    0926
092A:  BCF    F8A.1
092C:  BCF    F93.1
....................   RTC_I2C_WRITE(DS1307_ADDRESS); 
092E:  MOVLW  D0
0930:  MOVWF  x63
0932:  RCALL  027A
....................   RTC_I2C_WRITE(DS1307_REG_SECONDS); 
0934:  CLRF   x63
0936:  RCALL  027A
....................   RTC_I2C_START(); 
0938:  BSF    F93.0
093A:  MOVLW  05
093C:  MOVWF  00
093E:  DECFSZ 00,F
0940:  BRA    093E
0942:  BSF    F93.1
0944:  MOVLW  06
0946:  MOVWF  00
0948:  DECFSZ 00,F
094A:  BRA    0948
094C:  BTFSS  F81.1
094E:  BRA    094C
0950:  BCF    F8A.0
0952:  BCF    F93.0
0954:  MOVLW  05
0956:  MOVWF  00
0958:  DECFSZ 00,F
095A:  BRA    0958
095C:  BCF    F8A.1
095E:  BCF    F93.1
....................   RTC_I2C_WRITE(DS1307_ADDRESS | 0x01); 
0960:  MOVLW  D1
0962:  MOVWF  x63
0964:  RCALL  027A
....................   c_time.seconds = RTC_I2C_READ(1) & 0x7F; 
0966:  MOVLW  01
0968:  MOVWF  00
096A:  RCALL  088A
096C:  MOVF   01,W
096E:  ANDLW  7F
0970:  MOVWF  1D
....................   c_time.minutes = RTC_I2C_READ(1); 
0972:  MOVLW  01
0974:  MOVWF  00
0976:  RCALL  088A
0978:  MOVFF  01,1E
....................   c_time.hours   = RTC_I2C_READ(1); 
097C:  MOVLW  01
097E:  MOVWF  00
0980:  RCALL  088A
0982:  MOVFF  01,1F
....................   c_time.dow   = RTC_I2C_READ(1); 
0986:  MOVLW  01
0988:  MOVWF  00
098A:  RCALL  088A
098C:  MOVFF  01,20
....................   c_time.day   = RTC_I2C_READ(1); 
0990:  MOVLW  01
0992:  MOVWF  00
0994:  RCALL  088A
0996:  MOVFF  01,21
....................   c_time.month = RTC_I2C_READ(1); 
099A:  MOVLW  01
099C:  MOVWF  00
099E:  RCALL  088A
09A0:  MOVFF  01,22
....................   c_time.year  = RTC_I2C_READ(0); 
09A4:  CLRF   00
09A6:  RCALL  088A
09A8:  MOVFF  01,23
....................   RTC_I2C_STOP(); 
09AC:  BCF    F93.0
09AE:  NOP   
09B0:  BSF    F93.1
09B2:  BTFSS  F81.1
09B4:  BRA    09B2
09B6:  MOVLW  05
09B8:  MOVWF  00
09BA:  DECFSZ 00,F
09BC:  BRA    09BA
09BE:  BRA    09C0
09C0:  NOP   
09C2:  BSF    F93.0
09C4:  MOVLW  05
09C6:  MOVWF  00
09C8:  DECFSZ 00,F
09CA:  BRA    09C8
....................  
....................   // convert BCD to decimal 
....................   c_time.seconds = bcd_to_decimal(c_time.seconds); 
09CC:  MOVFF  1D,4F
09D0:  RCALL  08F0
09D2:  MOVFF  01,1D
....................   c_time.minutes = bcd_to_decimal(c_time.minutes); 
09D6:  MOVFF  1E,4F
09DA:  RCALL  08F0
09DC:  MOVFF  01,1E
....................   c_time.hours   = bcd_to_decimal(c_time.hours); 
09E0:  MOVFF  1F,4F
09E4:  RCALL  08F0
09E6:  MOVFF  01,1F
....................   c_time.day     = bcd_to_decimal(c_time.day); 
09EA:  MOVFF  21,4F
09EE:  RCALL  08F0
09F0:  MOVFF  01,21
....................   c_time.month   = bcd_to_decimal(c_time.month); 
09F4:  MOVFF  22,4F
09F8:  RCALL  08F0
09FA:  MOVFF  01,22
....................   c_time.year    = bcd_to_decimal(c_time.year); 
09FE:  MOVFF  23,4F
0A02:  RCALL  08F0
0A04:  MOVFF  01,23
....................   // end conversion 
....................  
....................   return &c_time; 
0A08:  MOVLW  1D
0A0A:  MOVWF  01
0A0C:  MOVLW  00
0A0E:  MOVWF  02
0A10:  RETURN 0
.................... } 
....................  
.................... // writes 'reg_value' to register of address 'reg_address' 
.................... void RTC_Write_Reg(uint8_t reg_address, uint8_t reg_value) 
.................... { 
....................   RTC_I2C_START(); 
....................   RTC_I2C_WRITE(DS1307_ADDRESS); 
....................   RTC_I2C_WRITE(reg_address); 
....................   RTC_I2C_WRITE(reg_value); 
....................   RTC_I2C_STOP(); 
.................... } 
....................  
.................... // returns the value stored in register of address 'reg_address' 
.................... uint8_t RTC_Read_Reg(uint8_t reg_address) 
.................... { 
....................   uint8_t reg_data; 
....................  
....................   RTC_I2C_START(); 
....................   RTC_I2C_WRITE(DS1307_ADDRESS); 
....................   RTC_I2C_WRITE(reg_address); 
....................   RTC_I2C_START(); 
....................   RTC_I2C_WRITE(DS1307_ADDRESS | 0x01); 
....................   reg_data = RTC_I2C_READ(0); 
....................   RTC_I2C_STOP(); 
....................  
....................   return reg_data; 
.................... } 
....................  
.................... // sets SQWE pin output 
.................... void SQWE_Set(SQWE pin_out) 
.................... { 
....................   RTC_I2C_START(); 
....................   RTC_I2C_WRITE(DS1307_ADDRESS); 
....................   RTC_I2C_WRITE(DS1307_REG_CONTROL); 
....................   RTC_I2C_WRITE(pin_out); 
....................   RTC_I2C_STOP(); 
.................... } 
....................  
.................... // enables RTC oscillator 
.................... void OSC_Enable() 
.................... { 
....................   uint8_t sec_reg = RTC_Read_Reg(DS1307_REG_SECONDS); 
....................   sec_reg &= 0x7F; 
....................   RTC_Write_Reg(DS1307_REG_SECONDS, sec_reg); 
.................... } 
....................  
.................... // disables RTC oscillator 
.................... void OSC_Disable() 
.................... { 
....................   uint8_t sec_reg = RTC_Read_Reg(DS1307_REG_SECONDS); 
....................   sec_reg |= 0x80; 
....................   RTC_Write_Reg(DS1307_REG_SECONDS, sec_reg); 
.................... } 
....................  
.................... #define DATA_PIN   PIN_E2  
.................... #define CLOCK_PIN  PIN_E0   
.................... #define LATCH_PIN  PIN_D6   
.................... #define DHT22_PIN  PIN_D5 
.................... const unsigned char seven_seg_digits[10] = {0xC0, 0xF9, 0xA4, 0xB0, 0x99, 0x92, 0x82, 0xF8, 0x80, 0x90}; 
.................... unsigned int8 second, minute, hour,  date,  month, year; 
.................... RTC_Time *mytime; 
.................... unsigned char digits[6]; 
.................... void shiftOut(unsigned char data) { 
....................     for (int i = 0; i < 8; i++) { 
*
0AFE:  CLRF   52
0B00:  MOVF   52,W
0B02:  SUBLW  07
0B04:  BNC   0B3E
....................         output_bit(DATA_PIN, (data >> (7 - i)) & 0x01); 
0B06:  MOVLW  07
0B08:  BSF    FD8.0
0B0A:  SUBFWB 52,W
0B0C:  MOVWF  01
0B0E:  MOVFF  51,00
0B12:  MOVF   01,F
0B14:  BZ    0B1E
0B16:  BCF    FD8.0
0B18:  RRCF   00,F
0B1A:  DECFSZ 01,F
0B1C:  BRA    0B16
0B1E:  MOVF   00,W
0B20:  ANDLW  01
0B22:  BNZ   0B28
0B24:  BCF    F8D.2
0B26:  BRA    0B2A
0B28:  BSF    F8D.2
0B2A:  BCF    F96.2
....................         output_high(CLOCK_PIN); 
0B2C:  BCF    F96.0
0B2E:  BSF    F8D.0
....................         delay_us(1); 
0B30:  BRA    0B32
0B32:  BRA    0B34
0B34:  NOP   
....................         output_low(CLOCK_PIN); 
0B36:  BCF    F96.0
0B38:  BCF    F8D.0
0B3A:  INCF   52,F
0B3C:  BRA    0B00
....................     } 
0B3E:  GOTO   0B74 (RETURN)
.................... } 
.................... void updateDisplay() { 
....................     output_low(LATCH_PIN); 
0B42:  BCF    F95.6
0B44:  BCF    F8C.6
....................     for (int i = 0; i < 6; i++) shiftOut(seven_seg_digits[digits[i]]); 
0B46:  CLRF   4F
0B48:  MOVF   4F,W
0B4A:  SUBLW  05
0B4C:  BNC   0B78
0B4E:  CLRF   03
0B50:  MOVF   4F,W
0B52:  ADDLW  2C
0B54:  MOVWF  FE9
0B56:  MOVLW  00
0B58:  ADDWFC 03,W
0B5A:  MOVWF  FEA
0B5C:  CLRF   03
0B5E:  MOVF   FEF,W
0B60:  MOVFF  FF2,50
0B64:  BCF    FF2.7
0B66:  CALL   00B4
0B6A:  BTFSC  50.7
0B6C:  BSF    FF2.7
0B6E:  MOVWF  50
0B70:  MOVWF  51
0B72:  BRA    0AFE
0B74:  INCF   4F,F
0B76:  BRA    0B48
....................     output_high(LATCH_PIN); 
0B78:  BCF    F95.6
0B7A:  BSF    F8C.6
0B7C:  GOTO   0C32 (RETURN)
.................... } 
.................... void updateTime() { 
....................     hour = mytime->hours; 
0B80:  MOVLW  02
0B82:  ADDWF  2A,W
0B84:  MOVWF  FE9
0B86:  MOVLW  00
0B88:  ADDWFC 2B,W
0B8A:  MOVWF  FEA
0B8C:  MOVFF  FEF,26
....................     minute = mytime->minutes; 
0B90:  MOVLW  01
0B92:  ADDWF  2A,W
0B94:  MOVWF  FE9
0B96:  MOVLW  00
0B98:  ADDWFC 2B,W
0B9A:  MOVWF  FEA
0B9C:  MOVFF  FEF,25
....................     second = mytime->seconds; 
0BA0:  MOVFF  2A,FE9
0BA4:  MOVFF  2B,FEA
0BA8:  MOVFF  FEF,24
....................     date = mytime->day; 
0BAC:  MOVLW  04
0BAE:  ADDWF  2A,W
0BB0:  MOVWF  FE9
0BB2:  MOVLW  00
0BB4:  ADDWFC 2B,W
0BB6:  MOVWF  FEA
0BB8:  MOVFF  FEF,27
....................     month = mytime->month; 
0BBC:  MOVLW  05
0BBE:  ADDWF  2A,W
0BC0:  MOVWF  FE9
0BC2:  MOVLW  00
0BC4:  ADDWFC 2B,W
0BC6:  MOVWF  FEA
0BC8:  MOVFF  FEF,28
....................     year = mytime->year; 
0BCC:  MOVLW  06
0BCE:  ADDWF  2A,W
0BD0:  MOVWF  FE9
0BD2:  MOVLW  00
0BD4:  ADDWFC 2B,W
0BD6:  MOVWF  FEA
0BD8:  MOVFF  FEF,29
....................     digits[0] = year % 10; 
0BDC:  MOVFF  29,55
0BE0:  MOVLW  0A
0BE2:  MOVWF  56
0BE4:  RCALL  0AD6
0BE6:  MOVFF  00,2C
....................     digits[1] = year / 10; 
0BEA:  MOVFF  29,55
0BEE:  MOVLW  0A
0BF0:  MOVWF  56
0BF2:  RCALL  0AD6
0BF4:  MOVFF  01,2D
....................     digits[2] = month % 10; 
0BF8:  MOVFF  28,55
0BFC:  MOVLW  0A
0BFE:  MOVWF  56
0C00:  RCALL  0AD6
0C02:  MOVFF  00,2E
....................     digits[3] = month / 10; 
0C06:  MOVFF  28,55
0C0A:  MOVLW  0A
0C0C:  MOVWF  56
0C0E:  RCALL  0AD6
0C10:  MOVFF  01,2F
....................     digits[4] = date % 10; 
0C14:  MOVFF  27,55
0C18:  MOVLW  0A
0C1A:  MOVWF  56
0C1C:  RCALL  0AD6
0C1E:  MOVFF  00,30
....................     digits[5] = date / 10; 
0C22:  MOVFF  27,55
0C26:  MOVLW  0A
0C28:  MOVWF  56
0C2A:  RCALL  0AD6
0C2C:  MOVFF  01,31
....................     updateDisplay(); 
0C30:  BRA    0B42
0C32:  GOTO   104C (RETURN)
.................... } 
.................... char Temperature[] = " 00.0 C"; 
.................... char Humidity[]    = " 00.0 %"; 
.................... int8 T_Byte1, T_Byte2, RH_Byte1, RH_Byte2, CheckSum; 
.................... int16 Temp, RH; 
.................... void Start_Signal(void) { 
....................   output_drive(DHT22_PIN);                             
*
0520:  BCF    F95.5
....................   output_low(DHT22_PIN);                               
0522:  BCF    F95.5
0524:  BCF    F8C.5
0526:  CLRF   16
0528:  BTFSC  FF2.7
052A:  BSF    16.7
052C:  BCF    FF2.7
....................   delay_ms(25);                                        
052E:  MOVLW  19
0530:  MOVWF  x64
0532:  RCALL  00D8
0534:  BTFSC  16.7
0536:  BSF    FF2.7
....................   output_high(DHT22_PIN);                              
0538:  BCF    F95.5
053A:  BSF    F8C.5
....................   delay_us(50);                                        
053C:  MOVLW  52
053E:  MOVWF  00
0540:  DECFSZ 00,F
0542:  BRA    0540
0544:  BRA    0546
0546:  NOP   
....................   output_float(DHT22_PIN);                            
0548:  BSF    F95.5
054A:  GOTO   06C2 (RETURN)
.................... } 
.................... int1 Check_Response(void) { 
....................   set_timer1(0);                                       
054E:  CLRF   FCF
0550:  CLRF   FCE
....................   while(!input(DHT22_PIN) && get_timer1() < 150);      
0552:  BSF    F95.5
0554:  BTFSC  F83.5
0556:  BRA    056E
0558:  MOVF   FCE,W
055A:  MOVFF  FCF,03
055E:  MOVWF  4F
0560:  MOVFF  FCF,50
0564:  MOVF   50,F
0566:  BNZ   056E
0568:  MOVF   4F,W
056A:  SUBLW  95
056C:  BC    0552
....................   if(get_timer1() >= 150)                              
056E:  MOVF   FCE,W
0570:  MOVFF  FCF,03
0574:  MOVWF  4F
0576:  MOVFF  FCF,50
057A:  MOVF   50,F
057C:  BNZ   0584
057E:  MOVF   4F,W
0580:  SUBLW  95
0582:  BC    058C
....................     return 0;                                        
0584:  MOVLW  00
0586:  MOVWF  01
0588:  BRA    05CE
058A:  BRA    05CE
....................   else { 
....................     set_timer1(0);                                    
058C:  CLRF   FCF
058E:  CLRF   FCE
....................     while(input(DHT22_PIN) && get_timer1() < 100);     
0590:  BSF    F95.5
0592:  BTFSS  F83.5
0594:  BRA    05AC
0596:  MOVF   FCE,W
0598:  MOVFF  FCF,03
059C:  MOVWF  4F
059E:  MOVFF  FCF,50
05A2:  MOVF   50,F
05A4:  BNZ   05AC
05A6:  MOVF   4F,W
05A8:  SUBLW  63
05AA:  BC    0590
....................     if(get_timer1() >= 100)                           
05AC:  MOVF   FCE,W
05AE:  MOVFF  FCF,03
05B2:  MOVWF  4F
05B4:  MOVFF  FCF,50
05B8:  MOVF   50,F
05BA:  BNZ   05C2
05BC:  MOVF   4F,W
05BE:  SUBLW  63
05C0:  BC    05CA
....................       return 0;                                        
05C2:  MOVLW  00
05C4:  MOVWF  01
05C6:  BRA    05CE
05C8:  BRA    05CE
....................     else 
....................       return 1;                                       
05CA:  MOVLW  01
05CC:  MOVWF  01
....................   } 
05CE:  GOTO   06C4 (RETURN)
.................... } 
.................... int1 Read_Data(int8 *dht_data) { 
....................   int8 j; 
....................   *dht_data = 0; 
05D2:  MOVFF  4F,FE9
05D6:  MOVFF  50,FEA
05DA:  CLRF   FEF
....................   for(j = 0; j < 8; j++){ 
05DC:  CLRF   51
05DE:  MOVF   51,W
05E0:  SUBLW  07
05E2:  BNC   0678
....................     set_timer1(0);                                     
05E4:  CLRF   FCF
05E6:  CLRF   FCE
....................     while(!input(DHT22_PIN))                           
05E8:  BSF    F95.5
05EA:  BTFSC  F83.5
05EC:  BRA    060C
....................       if(get_timer1() >= 100) {                        
05EE:  MOVF   FCE,W
05F0:  MOVFF  FCF,03
05F4:  MOVWF  52
05F6:  MOVFF  FCF,53
05FA:  MOVF   53,F
05FC:  BNZ   0604
05FE:  MOVF   52,W
0600:  SUBLW  63
0602:  BC    060A
....................         return 1; 
0604:  MOVLW  01
0606:  MOVWF  01
0608:  BRA    067C
060A:  BRA    05E8
....................       } 
....................     set_timer1(0);                                     
060C:  CLRF   FCF
060E:  CLRF   FCE
....................     while(input(DHT22_PIN))                            
0610:  BSF    F95.5
0612:  BTFSS  F83.5
0614:  BRA    0634
....................       if(get_timer1() > 100) {                         
0616:  MOVF   FCE,W
0618:  MOVFF  FCF,03
061C:  MOVWF  52
061E:  MOVFF  FCF,53
0622:  MOVF   53,F
0624:  BNZ   062C
0626:  MOVF   52,W
0628:  SUBLW  64
062A:  BC    0632
....................         return 1;                                      
062C:  MOVLW  01
062E:  MOVWF  01
0630:  BRA    067C
0632:  BRA    0610
....................       } 
....................      if(get_timer1() > 50)                             
0634:  MOVF   FCE,W
0636:  MOVFF  FCF,03
063A:  MOVWF  52
063C:  MOVFF  FCF,53
0640:  MOVF   53,F
0642:  BNZ   064A
0644:  MOVF   52,W
0646:  SUBLW  32
0648:  BC    0674
....................        bit_set(*dht_data, (7 - j));                    
064A:  MOVFF  50,03
064E:  MOVFF  4F,FE9
0652:  MOVFF  50,FEA
0656:  MOVLW  07
0658:  BSF    FD8.0
065A:  SUBFWB 51,W
065C:  MOVWF  52
065E:  MOVLW  01
0660:  MOVWF  00
0662:  MOVF   52,W
0664:  MOVWF  01
0666:  BZ    0670
0668:  BCF    FD8.0
066A:  RLCF   00,F
066C:  DECFSZ 01,F
066E:  BRA    0668
0670:  MOVF   00,W
0672:  IORWF  FEF,F
0674:  INCF   51,F
0676:  BRA    05DE
....................   } 
....................  
....................   return 0;                                           
0678:  MOVLW  00
067A:  MOVWF  01
067C:  RETURN 0
.................... } 
.................... void readDHT22() { 
....................     Start_Signal();                
*
06C0:  BRA    0520
....................     if(Check_Response()) {          
06C2:  BRA    054E
06C4:  MOVF   01,F
06C6:  BTFSC  FD8.2
06C8:  BRA    0868
....................         Read_Data(&RH_Byte1);       
06CA:  CLRF   50
06CC:  MOVLW  44
06CE:  MOVWF  4F
06D0:  RCALL  05D2
....................         Read_Data(&RH_Byte2);       
06D2:  CLRF   50
06D4:  MOVLW  45
06D6:  MOVWF  4F
06D8:  RCALL  05D2
....................         Read_Data(&T_Byte1);        
06DA:  CLRF   50
06DC:  MOVLW  42
06DE:  MOVWF  4F
06E0:  RCALL  05D2
....................         Read_Data(&T_Byte2);        
06E2:  CLRF   50
06E4:  MOVLW  43
06E6:  MOVWF  4F
06E8:  RCALL  05D2
....................         Read_Data(&CheckSum);       
06EA:  CLRF   50
06EC:  MOVLW  46
06EE:  MOVWF  4F
06F0:  RCALL  05D2
....................         if(CheckSum == ((RH_Byte1 + RH_Byte2 + T_Byte1 + T_Byte2) & 0xFF)) { 
06F2:  MOVF   45,W
06F4:  ADDWF  44,W
06F6:  ADDWF  42,W
06F8:  ADDWF  43,W
06FA:  SUBWF  46,W
06FC:  BTFSS  FD8.2
06FE:  BRA    0848
....................  
....................           RH = RH_Byte1; 
0700:  CLRF   4A
0702:  MOVFF  44,49
....................           RH = (RH << 8) | RH_Byte2; 
0706:  MOVFF  49,50
070A:  CLRF   4F
070C:  MOVF   4F,W
070E:  IORWF  45,W
0710:  MOVWF  49
0712:  MOVFF  50,4A
....................           Temp = T_Byte1; 
0716:  CLRF   48
0718:  MOVFF  42,47
....................           Temp = (Temp << 8) | T_Byte2; 
071C:  MOVFF  47,50
0720:  CLRF   4F
0722:  MOVF   4F,W
0724:  IORWF  43,W
0726:  MOVWF  47
0728:  MOVFF  50,48
....................  
....................           if( RH >= 1000) 
072C:  MOVF   4A,W
072E:  SUBLW  02
0730:  BC    0742
0732:  XORLW  FF
0734:  BNZ   073C
0736:  MOVF   49,W
0738:  SUBLW  E7
073A:  BC    0742
....................             Humidity[0]  = '1'; 
073C:  MOVLW  31
073E:  MOVWF  3A
0740:  BRA    0746
....................           else 
....................             Humidity[0]  = ' '; 
0742:  MOVLW  20
0744:  MOVWF  3A
....................  
....................           if(Temp > 0x8000) { 
0746:  MOVF   48,W
0748:  SUBLW  7F
074A:  BC    075E
074C:  XORLW  FF
074E:  BNZ   0756
0750:  MOVF   47,W
0752:  SUBLW  00
0754:  BC    075E
....................             Temperature[0] = '-'; 
0756:  MOVLW  2D
0758:  MOVWF  32
....................             Temp = Temp & 0x7FFF; 
075A:  BCF    48.7
....................           } 
075C:  BRA    0762
....................           else 
....................           Temperature[0] = ' '; 
075E:  MOVLW  20
0760:  MOVWF  32
....................           Temperature[1]  = (Temp / 100) % 10  + 48; 
0762:  MOVFF  48,52
0766:  MOVFF  47,51
076A:  CLRF   54
076C:  MOVLW  64
076E:  MOVWF  53
0770:  RCALL  067E
0772:  MOVFF  02,50
0776:  MOVFF  01,4F
077A:  MOVFF  02,52
077E:  MOVFF  01,51
0782:  CLRF   54
0784:  MOVLW  0A
0786:  MOVWF  53
0788:  RCALL  067E
078A:  MOVLW  30
078C:  ADDWF  00,W
078E:  MOVWF  33
....................           Temperature[2]  = (Temp / 10) % 10  + 48; 
0790:  MOVFF  48,52
0794:  MOVFF  47,51
0798:  CLRF   54
079A:  MOVLW  0A
079C:  MOVWF  53
079E:  RCALL  067E
07A0:  MOVFF  02,50
07A4:  MOVFF  01,4F
07A8:  MOVFF  02,52
07AC:  MOVFF  01,51
07B0:  CLRF   54
07B2:  MOVLW  0A
07B4:  MOVWF  53
07B6:  RCALL  067E
07B8:  MOVLW  30
07BA:  ADDWF  00,W
07BC:  MOVWF  34
....................           Temperature[4]  = Temp % 10  + 48; 
07BE:  MOVFF  48,52
07C2:  MOVFF  47,51
07C6:  CLRF   54
07C8:  MOVLW  0A
07CA:  MOVWF  53
07CC:  RCALL  067E
07CE:  MOVLW  30
07D0:  ADDWF  00,W
07D2:  MOVWF  36
....................           Humidity[1]     = (RH / 100) % 10 + 48; 
07D4:  MOVFF  4A,52
07D8:  MOVFF  49,51
07DC:  CLRF   54
07DE:  MOVLW  64
07E0:  MOVWF  53
07E2:  RCALL  067E
07E4:  MOVFF  02,50
07E8:  MOVFF  01,4F
07EC:  MOVFF  02,52
07F0:  MOVFF  01,51
07F4:  CLRF   54
07F6:  MOVLW  0A
07F8:  MOVWF  53
07FA:  RCALL  067E
07FC:  MOVLW  30
07FE:  ADDWF  00,W
0800:  MOVWF  3B
....................           Humidity[2]     = (RH / 10) % 10 + 48; 
0802:  MOVFF  4A,52
0806:  MOVFF  49,51
080A:  CLRF   54
080C:  MOVLW  0A
080E:  MOVWF  53
0810:  RCALL  067E
0812:  MOVFF  02,50
0816:  MOVFF  01,4F
081A:  MOVFF  02,52
081E:  MOVFF  01,51
0822:  CLRF   54
0824:  MOVLW  0A
0826:  MOVWF  53
0828:  RCALL  067E
082A:  MOVLW  30
082C:  ADDWF  00,W
082E:  MOVWF  3C
....................           Humidity[4]     = RH % 10 + 48; 
0830:  MOVFF  4A,52
0834:  MOVFF  49,51
0838:  CLRF   54
083A:  MOVLW  0A
083C:  MOVWF  53
083E:  RCALL  067E
0840:  MOVLW  30
0842:  ADDWF  00,W
0844:  MOVWF  3E
....................         } 
0846:  BRA    0866
....................         else { 
....................           Temperature[0] = Temperature[1] = Temperature[2] = Temperature[4] = 'E'; 
0848:  MOVLW  45
084A:  MOVWF  36
084C:  MOVFF  36,34
0850:  MOVFF  34,33
0854:  MOVFF  33,32
....................           Humidity[0]    = Humidity[1]    = Humidity[2]    = Humidity[4]    = 'E'; 
0858:  MOVWF  3E
085A:  MOVFF  3E,3C
085E:  MOVFF  3C,3B
0862:  MOVFF  3B,3A
....................         } 
....................     } 
0866:  BRA    0886
....................     else { 
....................       Temperature[0] = Temperature[1] = Temperature[2] = Temperature[4] = 'E'; 
0868:  MOVLW  45
086A:  MOVWF  36
086C:  MOVFF  36,34
0870:  MOVFF  34,33
0874:  MOVFF  33,32
....................       Humidity[0]    = Humidity[1]    = Humidity[2]    = Humidity[4]    = 'E'; 
0878:  MOVWF  3E
087A:  MOVFF  3E,3C
087E:  MOVFF  3C,3B
0882:  MOVFF  3B,3A
....................     } 
0886:  GOTO   0FFA (RETURN)
.................... } 
.................... int mode; 
.................... int gio=0,phut=0,giay=0; 
.................... #int_rb 
.................... void setup() 
.................... { 
....................       delay_ms(20); 
*
00FE:  MOVLW  14
0100:  MOVWF  x64
0102:  RCALL  00D8
....................       if(input(pin_B7)==0) 
0104:  BSF    F93.7
0106:  BTFSC  F81.7
0108:  BRA    011A
....................       { 
....................          mode++; 
010A:  INCF   4B,F
....................          if(mode==6)  mode = 0; 
010C:  MOVF   4B,W
010E:  SUBLW  06
0110:  BNZ   0114
0112:  CLRF   4B
....................          while(input(pin_B7)==0); 
0114:  BSF    F93.7
0116:  BTFSS  F81.7
0118:  BRA    0114
....................       } 
....................       if(mode==3) 
011A:  MOVF   4B,W
011C:  SUBLW  03
011E:  BNZ   014E
....................       { 
....................          if(input(pin_B5)==0) 
0120:  BSF    F93.5
0122:  BTFSC  F81.5
0124:  BRA    0136
....................          { 
....................             gio++; 
0126:  INCF   4C,F
....................             if(gio==24)  gio = 0; 
0128:  MOVF   4C,W
012A:  SUBLW  18
012C:  BNZ   0130
012E:  CLRF   4C
....................             while(input(pin_B5)==0); 
0130:  BSF    F93.5
0132:  BTFSS  F81.5
0134:  BRA    0130
....................          } 
....................          if(input(pin_B6)==0) 
0136:  BSF    F93.6
0138:  BTFSC  F81.6
013A:  BRA    014E
....................          { 
....................             gio--; 
013C:  DECF   4C,F
....................             if(gio==-1)  gio = 23; 
013E:  MOVF   4C,W
0140:  SUBLW  FF
0142:  BNZ   0148
0144:  MOVLW  17
0146:  MOVWF  4C
....................             while(input(pin_B6)==0); 
0148:  BSF    F93.6
014A:  BTFSS  F81.6
014C:  BRA    0148
....................          } 
....................       } 
....................       if(mode==4) 
014E:  MOVF   4B,W
0150:  SUBLW  04
0152:  BNZ   0182
....................       { 
....................          if(input(pin_B5)==0) 
0154:  BSF    F93.5
0156:  BTFSC  F81.5
0158:  BRA    016A
....................          { 
....................             phut++; 
015A:  INCF   4D,F
....................             if(phut==60)  gio = 0; 
015C:  MOVF   4D,W
015E:  SUBLW  3C
0160:  BNZ   0164
0162:  CLRF   4C
....................             while(input(pin_B5)==0); 
0164:  BSF    F93.5
0166:  BTFSS  F81.5
0168:  BRA    0164
....................          } 
....................          if(input(pin_B6)==0) 
016A:  BSF    F93.6
016C:  BTFSC  F81.6
016E:  BRA    0182
....................          { 
....................             phut--; 
0170:  DECF   4D,F
....................             if(gio==-1)  gio = 59; 
0172:  MOVF   4C,W
0174:  SUBLW  FF
0176:  BNZ   017C
0178:  MOVLW  3B
017A:  MOVWF  4C
....................             while(input(pin_B6)==0); 
017C:  BSF    F93.6
017E:  BTFSS  F81.6
0180:  BRA    017C
....................          } 
....................       } 
0182:  BCF    FF2.0
0184:  GOTO   0054
.................... } 
....................  
....................  
.................... void hengio() 
.................... { 
....................     
....................    lcd_clear(); 
*
0D88:  CALL   03F6
....................    lcd_gotoxy(1, 1); 
0D8C:  MOVLW  01
0D8E:  MOVWF  56
0D90:  MOVWF  57
0D92:  RCALL  0A12
....................    printf(lcd_putc, "Mode: 3"); 
0D94:  MOVLW  88
0D96:  MOVWF  FF6
0D98:  MOVLW  01
0D9A:  MOVWF  FF7
0D9C:  RCALL  0AB6
....................    lcd_gotoxy(1, 2); 
0D9E:  MOVLW  01
0DA0:  MOVWF  56
0DA2:  MOVLW  02
0DA4:  MOVWF  57
0DA6:  RCALL  0A12
....................    printf(lcd_putc, "THOI GIAN BAO THUC"); 
0DA8:  MOVLW  90
0DAA:  MOVWF  FF6
0DAC:  MOVLW  01
0DAE:  MOVWF  FF7
0DB0:  RCALL  0AB6
....................    lcd_gotoxy(1, 3); 
0DB2:  MOVLW  01
0DB4:  MOVWF  56
0DB6:  MOVLW  03
0DB8:  MOVWF  57
0DBA:  RCALL  0A12
....................    printf(lcd_putc, "Time: %u : %u :%u    ", hour,minute,second); 
0DBC:  MOVLW  A4
0DBE:  MOVWF  FF6
0DC0:  MOVLW  01
0DC2:  MOVWF  FF7
0DC4:  MOVLW  06
0DC6:  MOVWF  4F
0DC8:  RCALL  0C36
0DCA:  MOVFF  26,4F
0DCE:  MOVLW  1B
0DD0:  MOVWF  50
0DD2:  RCALL  0CFE
0DD4:  MOVLW  AC
0DD6:  MOVWF  FF6
0DD8:  MOVLW  01
0DDA:  MOVWF  FF7
0DDC:  MOVLW  03
0DDE:  MOVWF  4F
0DE0:  RCALL  0C36
0DE2:  MOVFF  25,4F
0DE6:  MOVLW  1B
0DE8:  MOVWF  50
0DEA:  RCALL  0CFE
0DEC:  MOVLW  20
0DEE:  MOVWF  55
0DF0:  RCALL  0A74
0DF2:  MOVLW  3A
0DF4:  MOVWF  55
0DF6:  RCALL  0A74
0DF8:  MOVFF  24,4F
0DFC:  MOVLW  1B
0DFE:  MOVWF  50
0E00:  RCALL  0CFE
0E02:  MOVLW  B5
0E04:  MOVWF  FF6
0E06:  MOVLW  01
0E08:  MOVWF  FF7
0E0A:  MOVLW  04
0E0C:  MOVWF  4F
0E0E:  RCALL  0C36
....................    if(mode == 3) 
0E10:  MOVF   4B,W
0E12:  SUBLW  03
0E14:  BNZ   0EA8
....................    { 
....................        lcd_gotoxy(1, 4); 
0E16:  MOVLW  01
0E18:  MOVWF  56
0E1A:  MOVLW  04
0E1C:  MOVWF  57
0E1E:  RCALL  0A12
....................        printf(lcd_putc,"Set: %d : %d : %d",gio,phut,giay); 
0E20:  MOVLW  BA
0E22:  MOVWF  FF6
0E24:  MOVLW  01
0E26:  MOVWF  FF7
0E28:  MOVLW  05
0E2A:  MOVWF  4F
0E2C:  RCALL  0C36
0E2E:  MOVFF  4C,4F
0E32:  MOVLW  18
0E34:  MOVWF  50
0E36:  RCALL  0C54
0E38:  MOVLW  C1
0E3A:  MOVWF  FF6
0E3C:  MOVLW  01
0E3E:  MOVWF  FF7
0E40:  MOVLW  03
0E42:  MOVWF  4F
0E44:  RCALL  0C36
0E46:  MOVFF  4D,4F
0E4A:  MOVLW  18
0E4C:  MOVWF  50
0E4E:  RCALL  0C54
0E50:  MOVLW  C6
0E52:  MOVWF  FF6
0E54:  MOVLW  01
0E56:  MOVWF  FF7
0E58:  MOVLW  03
0E5A:  MOVWF  4F
0E5C:  RCALL  0C36
0E5E:  MOVFF  4E,4F
0E62:  MOVLW  18
0E64:  MOVWF  50
0E66:  RCALL  0C54
0E68:  CLRF   16
0E6A:  BTFSC  FF2.7
0E6C:  BSF    16.7
0E6E:  BCF    FF2.7
....................        delay_ms(100); 
0E70:  MOVLW  64
0E72:  MOVWF  x64
0E74:  CALL   00D8
0E78:  BTFSC  16.7
0E7A:  BSF    FF2.7
....................        lcd_gotoxy(5, 4); 
0E7C:  MOVLW  05
0E7E:  MOVWF  56
0E80:  MOVLW  04
0E82:  MOVWF  57
0E84:  RCALL  0A12
....................        printf(lcd_putc,"  "); 
0E86:  MOVLW  20
0E88:  MOVWF  55
0E8A:  RCALL  0A74
0E8C:  MOVLW  20
0E8E:  MOVWF  55
0E90:  RCALL  0A74
0E92:  CLRF   16
0E94:  BTFSC  FF2.7
0E96:  BSF    16.7
0E98:  BCF    FF2.7
....................        delay_ms(100); 
0E9A:  MOVLW  64
0E9C:  MOVWF  x64
0E9E:  CALL   00D8
0EA2:  BTFSC  16.7
0EA4:  BSF    FF2.7
....................         
....................    } 
0EA6:  BRA    0F76
....................    else if(mode == 4) 
0EA8:  MOVF   4B,W
0EAA:  SUBLW  04
0EAC:  BNZ   0F08
....................    { 
....................       lcd_gotoxy(10, 4); 
0EAE:  MOVLW  0A
0EB0:  MOVWF  56
0EB2:  MOVLW  04
0EB4:  MOVWF  57
0EB6:  RCALL  0A12
....................        printf(lcd_putc,"%d ",phut); 
0EB8:  MOVFF  4D,4F
0EBC:  MOVLW  18
0EBE:  MOVWF  50
0EC0:  RCALL  0C54
0EC2:  MOVLW  20
0EC4:  MOVWF  55
0EC6:  RCALL  0A74
0EC8:  CLRF   16
0ECA:  BTFSC  FF2.7
0ECC:  BSF    16.7
0ECE:  BCF    FF2.7
....................        delay_ms(100); 
0ED0:  MOVLW  64
0ED2:  MOVWF  x64
0ED4:  CALL   00D8
0ED8:  BTFSC  16.7
0EDA:  BSF    FF2.7
....................        lcd_gotoxy(10, 4); 
0EDC:  MOVLW  0A
0EDE:  MOVWF  56
0EE0:  MOVLW  04
0EE2:  MOVWF  57
0EE4:  RCALL  0A12
....................        printf(lcd_putc,"  "); 
0EE6:  MOVLW  20
0EE8:  MOVWF  55
0EEA:  RCALL  0A74
0EEC:  MOVLW  20
0EEE:  MOVWF  55
0EF0:  RCALL  0A74
0EF2:  CLRF   16
0EF4:  BTFSC  FF2.7
0EF6:  BSF    16.7
0EF8:  BCF    FF2.7
....................        delay_ms(100); 
0EFA:  MOVLW  64
0EFC:  MOVWF  x64
0EFE:  CALL   00D8
0F02:  BTFSC  16.7
0F04:  BSF    FF2.7
....................    } 
0F06:  BRA    0F76
....................    else if(mode == 5) 
0F08:  MOVF   4B,W
0F0A:  SUBLW  05
0F0C:  BNZ   0F76
....................    { 
....................        lcd_gotoxy(1, 4); 
0F0E:  MOVLW  01
0F10:  MOVWF  56
0F12:  MOVLW  04
0F14:  MOVWF  57
0F16:  RCALL  0A12
....................        printf(lcd_putc,"Set: %d : %d : %d",gio,phut,giay); 
0F18:  MOVLW  CC
0F1A:  MOVWF  FF6
0F1C:  MOVLW  01
0F1E:  MOVWF  FF7
0F20:  MOVLW  05
0F22:  MOVWF  4F
0F24:  RCALL  0C36
0F26:  MOVFF  4C,4F
0F2A:  MOVLW  18
0F2C:  MOVWF  50
0F2E:  RCALL  0C54
0F30:  MOVLW  D3
0F32:  MOVWF  FF6
0F34:  MOVLW  01
0F36:  MOVWF  FF7
0F38:  MOVLW  03
0F3A:  MOVWF  4F
0F3C:  RCALL  0C36
0F3E:  MOVFF  4D,4F
0F42:  MOVLW  18
0F44:  MOVWF  50
0F46:  RCALL  0C54
0F48:  MOVLW  D8
0F4A:  MOVWF  FF6
0F4C:  MOVLW  01
0F4E:  MOVWF  FF7
0F50:  MOVLW  03
0F52:  MOVWF  4F
0F54:  RCALL  0C36
0F56:  MOVFF  4E,4F
0F5A:  MOVLW  18
0F5C:  MOVWF  50
0F5E:  RCALL  0C54
....................        if(gio== hour && phut == minute) output_high(pin_c0); else output_low(pin_c0); 
0F60:  MOVF   26,W
0F62:  SUBWF  4C,W
0F64:  BNZ   0F72
0F66:  MOVF   25,W
0F68:  SUBWF  4D,W
0F6A:  BNZ   0F72
0F6C:  BCF    F94.0
0F6E:  BSF    F8B.0
0F70:  BRA    0F76
0F72:  BCF    F94.0
0F74:  BCF    F8B.0
....................    } 
0F76:  GOTO   119C (RETURN)
....................     
.................... } 
.................... void main() { 
0F7A:  CLRF   FF8
0F7C:  BCF    FD0.7
0F7E:  BSF    07.7
0F80:  MOVLW  01
0F82:  MOVWF  1A
0F84:  MOVLW  08
0F86:  MOVWF  1B
0F88:  CLRF   4C
0F8A:  CLRF   4D
0F8C:  CLRF   4E
0F8E:  MOVF   FC1,W
0F90:  ANDLW  C0
0F92:  IORLW  0F
0F94:  MOVWF  FC1
0F96:  MOVLW  07
0F98:  MOVWF  FB4
0F9A:  CLRF   1C
0F9C:  MOVLW  20
0F9E:  MOVWF  32
0FA0:  MOVLW  30
0FA2:  MOVWF  33
0FA4:  MOVWF  34
0FA6:  MOVLW  2E
0FA8:  MOVWF  35
0FAA:  MOVLW  30
0FAC:  MOVWF  36
0FAE:  MOVLW  20
0FB0:  MOVWF  37
0FB2:  MOVLW  43
0FB4:  MOVWF  38
0FB6:  CLRF   39
0FB8:  MOVLW  20
0FBA:  MOVWF  3A
0FBC:  MOVLW  30
0FBE:  MOVWF  3B
0FC0:  MOVWF  3C
0FC2:  MOVLW  2E
0FC4:  MOVWF  3D
0FC6:  MOVLW  30
0FC8:  MOVWF  3E
0FCA:  MOVLW  20
0FCC:  MOVWF  3F
0FCE:  MOVLW  25
0FD0:  MOVWF  40
0FD2:  CLRF   41
....................     setup_timer_1(T1_INTERNAL | T1_DIV_BY_4); 
0FD4:  MOVLW  A5
0FD6:  MOVWF  FCD
....................     set_tris_b(0xFF); 
0FD8:  MOVLW  FF
0FDA:  MOVWF  F93
....................     enable_interrupts(INT_RB); 
0FDC:  BSF    FF2.3
....................     enable_interrupts(GLOBAL); 
0FDE:  MOVLW  C0
0FE0:  IORWF  FF2,F
....................     lcd_init(0x70, 20, 4); 
0FE2:  MOVLW  70
0FE4:  MOVWF  4F
0FE6:  MOVLW  14
0FE8:  MOVWF  50
0FEA:  MOVLW  04
0FEC:  MOVWF  51
0FEE:  GOTO   0416
....................     Temperature[5] = 223; 
0FF2:  MOVLW  DF
0FF4:  MOVWF  37
....................     while (TRUE) { 
....................     readDHT22(); 
0FF6:  GOTO   06C0
....................     mytime = RTC_Get(); 
0FFA:  RCALL  090A
0FFC:  MOVFF  02,2B
1000:  MOVFF  01,2A
....................     if (mytime->hours > 23 || mytime->minutes > 59 || mytime->seconds > 59) { 
1004:  MOVLW  02
1006:  ADDWF  2A,W
1008:  MOVWF  FE9
100A:  MOVLW  00
100C:  ADDWFC 2B,W
100E:  MOVWF  FEA
1010:  MOVF   FEF,W
1012:  SUBLW  17
1014:  BNC   1036
1016:  MOVLW  01
1018:  ADDWF  2A,W
101A:  MOVWF  FE9
101C:  MOVLW  00
101E:  ADDWFC 2B,W
1020:  MOVWF  FEA
1022:  MOVF   FEF,W
1024:  SUBLW  3B
1026:  BNC   1036
1028:  MOVFF  2A,FE9
102C:  MOVFF  2B,FEA
1030:  MOVF   FEF,W
1032:  SUBLW  3B
1034:  BC    104A
....................             lcd_gotoxy(1, 1); 
1036:  MOVLW  01
1038:  MOVWF  56
103A:  MOVWF  57
103C:  RCALL  0A12
....................             printf(lcd_putc, "RTC Err!"); 
103E:  MOVLW  DE
1040:  MOVWF  FF6
1042:  MOVLW  01
1044:  MOVWF  FF7
1046:  RCALL  0AB6
....................       }  
1048:  BRA    104C
....................     else { 
....................             updateTime();    
104A:  BRA    0B80
....................       } 
....................     if(mode==0) 
104C:  MOVF   4B,F
104E:  BNZ   1106
....................     { 
....................        
....................       lcd_gotoxy(1, 1); 
1050:  MOVLW  01
1052:  MOVWF  56
1054:  MOVWF  57
1056:  RCALL  0A12
....................       printf(lcd_putc, "Mode: %d   ", mode); 
1058:  MOVLW  E8
105A:  MOVWF  FF6
105C:  MOVLW  01
105E:  MOVWF  FF7
1060:  MOVLW  06
1062:  MOVWF  4F
1064:  RCALL  0C36
1066:  MOVFF  4B,4F
106A:  MOVLW  18
106C:  MOVWF  50
106E:  RCALL  0C54
1070:  MOVLW  F0
1072:  MOVWF  FF6
1074:  MOVLW  01
1076:  MOVWF  FF7
1078:  MOVLW  03
107A:  MOVWF  4F
107C:  RCALL  0C36
....................       lcd_gotoxy(1, 2); 
107E:  MOVLW  01
1080:  MOVWF  56
1082:  MOVLW  02
1084:  MOVWF  57
1086:  RCALL  0A12
....................       printf(lcd_putc, "Time: %u : %u :%u    ", hour,minute,second); 
1088:  MOVLW  F4
108A:  MOVWF  FF6
108C:  MOVLW  01
108E:  MOVWF  FF7
1090:  MOVLW  06
1092:  MOVWF  4F
1094:  RCALL  0C36
1096:  MOVFF  26,4F
109A:  MOVLW  1B
109C:  MOVWF  50
109E:  RCALL  0CFE
10A0:  MOVLW  FC
10A2:  MOVWF  FF6
10A4:  MOVLW  01
10A6:  MOVWF  FF7
10A8:  MOVLW  03
10AA:  MOVWF  4F
10AC:  RCALL  0C36
10AE:  MOVFF  25,4F
10B2:  MOVLW  1B
10B4:  MOVWF  50
10B6:  RCALL  0CFE
10B8:  MOVLW  20
10BA:  MOVWF  55
10BC:  RCALL  0A74
10BE:  MOVLW  3A
10C0:  MOVWF  55
10C2:  RCALL  0A74
10C4:  MOVFF  24,4F
10C8:  MOVLW  1B
10CA:  MOVWF  50
10CC:  RCALL  0CFE
10CE:  MOVLW  05
10D0:  MOVWF  FF6
10D2:  MOVLW  02
10D4:  MOVWF  FF7
10D6:  MOVLW  04
10D8:  MOVWF  4F
10DA:  RCALL  0C36
....................       lcd_gotoxy(1, 3); 
10DC:  MOVLW  01
10DE:  MOVWF  56
10E0:  MOVLW  03
10E2:  MOVWF  57
10E4:  RCALL  0A12
....................       printf(lcd_putc, "    Le Ky Tuan"); 
10E6:  MOVLW  0A
10E8:  MOVWF  FF6
10EA:  MOVLW  02
10EC:  MOVWF  FF7
10EE:  RCALL  0AB6
....................       lcd_gotoxy(1, 4); 
10F0:  MOVLW  01
10F2:  MOVWF  56
10F4:  MOVLW  04
10F6:  MOVWF  57
10F8:  RCALL  0A12
....................       printf(lcd_putc, "  Hoang Duc Trong"); 
10FA:  MOVLW  1A
10FC:  MOVWF  FF6
10FE:  MOVLW  02
1100:  MOVWF  FF7
1102:  RCALL  0AB6
....................        
....................       
....................     } 
1104:  BRA    119C
....................     else if(mode==1) 
1106:  DECFSZ 4B,W
1108:  BRA    119A
....................     { 
....................       lcd_gotoxy(1, 1); 
110A:  MOVLW  01
110C:  MOVWF  56
110E:  MOVWF  57
1110:  RCALL  0A12
....................       printf(lcd_putc, "Mode: %d   ", mode); 
1112:  MOVLW  2C
1114:  MOVWF  FF6
1116:  MOVLW  02
1118:  MOVWF  FF7
111A:  MOVLW  06
111C:  MOVWF  4F
111E:  RCALL  0C36
1120:  MOVFF  4B,4F
1124:  MOVLW  18
1126:  MOVWF  50
1128:  RCALL  0C54
112A:  MOVLW  34
112C:  MOVWF  FF6
112E:  MOVLW  02
1130:  MOVWF  FF7
1132:  MOVLW  03
1134:  MOVWF  4F
1136:  RCALL  0C36
....................       lcd_gotoxy(1, 2); 
1138:  MOVLW  01
113A:  MOVWF  56
113C:  MOVLW  02
113E:  MOVWF  57
1140:  RCALL  0A12
....................       printf(lcd_putc, "Nhiet Do: %s", Temperature); 
1142:  MOVLW  38
1144:  MOVWF  FF6
1146:  MOVLW  02
1148:  MOVWF  FF7
114A:  MOVLW  0A
114C:  MOVWF  4F
114E:  RCALL  0C36
1150:  CLRF   FEA
1152:  MOVLW  32
1154:  MOVWF  FE9
1156:  RCALL  0D64
....................       lcd_gotoxy(1, 3); 
1158:  MOVLW  01
115A:  MOVWF  56
115C:  MOVLW  03
115E:  MOVWF  57
1160:  RCALL  0A12
....................       printf(lcd_putc, "Do Am: %s", Humidity); 
1162:  MOVLW  46
1164:  MOVWF  FF6
1166:  MOVLW  02
1168:  MOVWF  FF7
116A:  MOVLW  07
116C:  MOVWF  4F
116E:  RCALL  0C36
1170:  CLRF   FEA
1172:  MOVLW  3A
1174:  MOVWF  FE9
1176:  RCALL  0D64
....................       lcd_gotoxy(1, 4); 
1178:  MOVLW  01
117A:  MOVWF  56
117C:  MOVLW  04
117E:  MOVWF  57
1180:  RCALL  0A12
....................       printf(lcd_putc, "                                         "); 
1182:  MOVLW  50
1184:  MOVWF  FF6
1186:  MOVLW  02
1188:  MOVWF  FF7
118A:  RCALL  0AB6
....................       mytime = RTC_Get(); 
118C:  CALL   090A
1190:  MOVFF  02,2B
1194:  MOVFF  01,2A
....................     } 
1198:  BRA    119C
....................     else 
....................     { 
....................       hengio(); 
119A:  BRA    0D88
....................     } 
119C:  BRA    0FF6
....................     } 
....................  
.................... } 
119E:  SLEEP 

Configuration Fuses:
   Word  1: CE3C   PLL5 CPUDIV4 USBDIV HSPLL FCMEN IESO
   Word  2: 1E3E   PUT BROWNOUT BORV21 VREGEN NOWDT WDT32768
   Word  3: 8700   CCP2C1 PBADEN LPT1OSC MCLR
   Word  4: 00A1   STVREN NOLVP ICSP2 NOXINST NODEBUG
   Word  5: C00F   NOPROTECT NOCPB NOCPD
   Word  6: E00F   NOWRT NOWRTC NOWRTB NOWRTD
   Word  7: 400F   NOEBTR NOEBTRB
